; Function Attrs: nounwind uwtable
define void @duckdb_je_pa_shard_prefork3(ptr noundef %0, ptr noundef %1) local_unnamed_addr #0 {
  %3 = getelementptr inbounds nuw i8, ptr %1, i64 58432
  tail call void @duckdb_je_malloc_mutex_prefork(ptr noundef %0, ptr noundef nonnull %3) #5
  %4 = getelementptr inbounds nuw i8, ptr %1, i64 17
  %5 = load i8, ptr %4, align 1, !tbaa !3, !range !49, !noundef !50
  %6 = trunc nuw i8 %5 to i1
  br i1 %6, label %7, label %9

7:                                                ; preds = %2
  %8 = getelementptr inbounds nuw i8, ptr %1, i64 62384
  tail call void @duckdb_je_hpa_shard_prefork3(ptr noundef %0, ptr noundef nonnull %8) #5
  br label %9

9:                                                ; preds = %7, %2
  ret void
}